target datalayout = "e-m:e-p270:32:32-p271:32:32-p272:64:64-i64:64-i128:128-f80:128-n8:16:32:64-S128"
target triple = "x86_64-pc-linux-gnu"

%"struct.open_spiel::GameType" = type <{ %"class.std::__cxx11::basic_string", %"class.std::__cxx11::basic_string", i32, i32, i32, i32, i32, i32, i32, i8, i8, i8, i8, %"class.std::map", i8, i8, [6 x i8] }>
%"class.std::__cxx11::basic_string" = type { %"struct.std::__cxx11::basic_string<char>::_Alloc_hider", i64, %union.anon }
%"struct.std::__cxx11::basic_string<char>::_Alloc_hider" = type { ptr }
%union.anon = type { i64, [8 x i8] }
%"class.std::map" = type { %"class.std::_Rb_tree" }
%"class.std::_Rb_tree" = type { %"struct.std::_Rb_tree<std::__cxx11::basic_string<char>, std::pair<const std::__cxx11::basic_string<char>, open_spiel::GameParameter>, std::_Select1st<std::pair<const std::__cxx11::basic_string<char>, open_spiel::GameParameter>>, std::less<std::__cxx11::basic_string<char>>>::_Rb_tree_impl" }
%"struct.std::_Rb_tree<std::__cxx11::basic_string<char>, std::pair<const std::__cxx11::basic_string<char>, open_spiel::GameParameter>, std::_Select1st<std::pair<const std::__cxx11::basic_string<char>, open_spiel::GameParameter>>, std::less<std::__cxx11::basic_string<char>>>::_Rb_tree_impl" = type { [8 x i8], %"struct.std::_Rb_tree_header" }
%"struct.std::_Rb_tree_header" = type { %"struct.std::_Rb_tree_node_base", i64 }
%"struct.std::_Rb_tree_node_base" = type { i32, ptr, ptr, ptr }
%"class.std::vector.9" = type { %"struct.std::_Vector_base.10" }
%"struct.std::_Vector_base.10" = type { %"struct.std::_Vector_base<std::__cxx11::basic_string<char>, std::allocator<std::__cxx11::basic_string<char>>>::_Vector_impl" }
%"struct.std::_Vector_base<std::__cxx11::basic_string<char>, std::allocator<std::__cxx11::basic_string<char>>>::_Vector_impl" = type { %"struct.std::_Vector_base<std::__cxx11::basic_string<char>, std::allocator<std::__cxx11::basic_string<char>>>::_Vector_impl_data" }
%"struct.std::_Vector_base<std::__cxx11::basic_string<char>, std::allocator<std::__cxx11::basic_string<char>>>::_Vector_impl_data" = type { ptr, ptr, ptr }
%"class.absl::debian2::AlphaNum" = type { %"class.absl::debian2::string_view", [32 x i8] }
%"class.absl::debian2::string_view" = type { ptr, i64 }
%"class.open_spiel::efg_game::EFGGame" = type { %"class.open_spiel::Game", %"class.std::__cxx11::basic_string", %"class.std::__cxx11::basic_string", i32, i32, %"class.std::vector.29", %"class.std::__cxx11::basic_string", %"class.std::__cxx11::basic_string", %"class.std::vector.9", i32, i32, i32, i32, %"class.absl::debian2::optional", %"class.absl::debian2::optional", %"class.absl::debian2::optional", i8, i8, i8, i8, %"class.std::vector.35", %"class.absl::debian2::flat_hash_map", %"class.absl::debian2::flat_hash_map.48", %"class.absl::debian2::flat_hash_map.59", %"class.absl::debian2::flat_hash_map.59" }
%"class.open_spiel::Game" = type { ptr, %"class.std::enable_shared_from_this", %"struct.open_spiel::GameType", %"class.std::map", %"class.std::map", %"class.absl::debian2::Mutex" }
%"class.std::enable_shared_from_this" = type { %"class.std::weak_ptr" }
%"class.std::weak_ptr" = type { %"class.std::__weak_ptr" }
%"class.std::__weak_ptr" = type { ptr, %"class.std::__weak_count" }
%"class.std::__weak_count" = type { ptr }
%"class.absl::debian2::Mutex" = type { %"struct.std::atomic" }
%"struct.std::atomic" = type { %"struct.std::__atomic_base" }
%"struct.std::__atomic_base" = type { i64 }
%"class.std::vector.29" = type { %"struct.std::_Vector_base.30" }
%"struct.std::_Vector_base.30" = type { %"struct.std::_Vector_base<std::unique_ptr<open_spiel::efg_game::Node>, std::allocator<std::unique_ptr<open_spiel::efg_game::Node>>>::_Vector_impl" }
%"struct.std::_Vector_base<std::unique_ptr<open_spiel::efg_game::Node>, std::allocator<std::unique_ptr<open_spiel::efg_game::Node>>>::_Vector_impl" = type { %"struct.std::_Vector_base<std::unique_ptr<open_spiel::efg_game::Node>, std::allocator<std::unique_ptr<open_spiel::efg_game::Node>>>::_Vector_impl_data" }
%"struct.std::_Vector_base<std::unique_ptr<open_spiel::efg_game::Node>, std::allocator<std::unique_ptr<open_spiel::efg_game::Node>>>::_Vector_impl_data" = type { ptr, ptr, ptr }
%"class.absl::debian2::optional" = type { %"class.absl::debian2::optional_internal::optional_data" }
%"class.absl::debian2::optional_internal::optional_data" = type { %"class.absl::debian2::optional_internal::optional_data_base" }
%"class.absl::debian2::optional_internal::optional_data_base" = type { %"class.absl::debian2::optional_internal::optional_data_dtor_base" }
%"class.absl::debian2::optional_internal::optional_data_dtor_base" = type { i8, %union.anon.34 }
%union.anon.34 = type { double }
%"class.std::vector.35" = type { %"struct.std::_Vector_base.36" }
%"struct.std::_Vector_base.36" = type { %"struct.std::_Vector_base<absl::debian2::flat_hash_map<int, int>, std::allocator<absl::debian2::flat_hash_map<int, int>>>::_Vector_impl" }
%"struct.std::_Vector_base<absl::debian2::flat_hash_map<int, int>, std::allocator<absl::debian2::flat_hash_map<int, int>>>::_Vector_impl" = type { %"struct.std::_Vector_base<absl::debian2::flat_hash_map<int, int>, std::allocator<absl::debian2::flat_hash_map<int, int>>>::_Vector_impl_data" }
%"struct.std::_Vector_base<absl::debian2::flat_hash_map<int, int>, std::allocator<absl::debian2::flat_hash_map<int, int>>>::_Vector_impl_data" = type { ptr, ptr, ptr }
%"class.absl::debian2::flat_hash_map" = type { %"class.absl::debian2::container_internal::raw_hash_map" }
%"class.absl::debian2::container_internal::raw_hash_map" = type { %"class.absl::debian2::container_internal::raw_hash_set" }
%"class.absl::debian2::container_internal::raw_hash_set" = type { ptr, ptr, i64, i64, %"class.absl::debian2::container_internal::CompressedTuple" }
%"class.absl::debian2::container_internal::CompressedTuple" = type { %"struct.absl::debian2::container_internal::internal_compressed_tuple::CompressedTupleImpl" }
%"struct.absl::debian2::container_internal::internal_compressed_tuple::CompressedTupleImpl" = type { %"struct.absl::debian2::container_internal::internal_compressed_tuple::Storage" }
%"struct.absl::debian2::container_internal::internal_compressed_tuple::Storage" = type { i64 }
%"class.absl::debian2::flat_hash_map.48" = type { %"class.absl::debian2::container_internal::raw_hash_map.49" }
%"class.absl::debian2::container_internal::raw_hash_map.49" = type { %"class.absl::debian2::container_internal::raw_hash_set.50" }
%"class.absl::debian2::container_internal::raw_hash_set.50" = type { ptr, ptr, i64, i64, %"class.absl::debian2::container_internal::CompressedTuple.51" }
%"class.absl::debian2::container_internal::CompressedTuple.51" = type { %"struct.absl::debian2::container_internal::internal_compressed_tuple::CompressedTupleImpl.52" }
%"struct.absl::debian2::container_internal::internal_compressed_tuple::CompressedTupleImpl.52" = type { %"struct.absl::debian2::container_internal::internal_compressed_tuple::Storage" }
%"class.absl::debian2::flat_hash_map.59" = type { %"class.absl::debian2::container_internal::raw_hash_map.60" }
%"class.absl::debian2::container_internal::raw_hash_map.60" = type { %"class.absl::debian2::container_internal::raw_hash_set.61" }
%"class.absl::debian2::container_internal::raw_hash_set.61" = type { ptr, ptr, i64, i64, %"class.absl::debian2::container_internal::CompressedTuple.62" }
%"class.absl::debian2::container_internal::CompressedTuple.62" = type { %"struct.absl::debian2::container_internal::internal_compressed_tuple::CompressedTupleImpl.63" }
%"struct.absl::debian2::container_internal::internal_compressed_tuple::CompressedTupleImpl.63" = type { %"struct.absl::debian2::container_internal::internal_compressed_tuple::Storage" }
%class.anon = type { i8 }

@.str.20 = private unnamed_addr constant [3 x i8] c": \00", align 1
@.str.105 = private unnamed_addr constant [29 x i8] c"Unexpected character at pos \00", align 1

; Function Attrs: mustprogress nounwind uwtable
define linkonce_odr void @_ZZN4absl7debian211string_view19CheckLengthInternalEmENKUlvE_clEv(ptr noundef nonnull align 1 dereferenceable(1) %0) #5 comdat align 2 {
  %2 = alloca ptr, align 8
  store ptr %0, ptr %2, align 8
  br label %3

3:                                                ; preds = %1
  call void @llvm.trap()
  unreachable

4:                                                ; No predecessors!
  ret void
}

; Function Attrs: mustprogress uwtable
define linkonce_odr noundef i64 @_ZN4absl7debian211string_view19CheckLengthInternalEm(i64 noundef %0) #4 comdat align 2 {
  %2 = alloca i64, align 8
  %3 = alloca %class.anon, align 1
  store i64 %0, ptr %2, align 8
  %4 = load i64, ptr %2, align 8
  %5 = icmp ule i64 %4, 9223372036854775807
  br i1 %5, label %6, label %7

6:                                                ; preds = %1
  br label %8

7:                                                ; preds = %1
  call void @_ZZN4absl7debian211string_view19CheckLengthInternalEmENKUlvE_clEv(ptr noundef nonnull align 1 dereferenceable(1) %3)
  br label %8

8:                                                ; preds = %7, %6
  %9 = load i64, ptr %2, align 8
  ret i64 %9
}

; Function Attrs: mustprogress nounwind uwtable
define linkonce_odr noundef i64 @_ZN4absl7debian211string_view14StrlenInternalEPKc(ptr noundef %0) #5 comdat align 2 {
  %2 = alloca ptr, align 8
  store ptr %0, ptr %2, align 8
  %3 = load ptr, ptr %2, align 8
  %4 = call i64 @strlen(ptr noundef %3) #3
  ret i64 %4
}

; Function Attrs: mustprogress uwtable
define linkonce_odr void @_ZN4absl7debian211string_viewC2EPKcm(ptr noundef nonnull align 8 dereferenceable(16) %0, ptr noundef %1, i64 noundef %2) unnamed_addr #4 comdat align 2 {
  %4 = alloca ptr, align 8
  %5 = alloca ptr, align 8
  %6 = alloca i64, align 8
  store ptr %0, ptr %4, align 8
  store ptr %1, ptr %5, align 8
  store i64 %2, ptr %6, align 8
  %7 = load ptr, ptr %4, align 8
  %8 = getelementptr inbounds nuw %"class.absl::debian2::string_view", ptr %7, i32 0, i32 0
  %9 = load ptr, ptr %5, align 8
  store ptr %9, ptr %8, align 8
  %10 = getelementptr inbounds nuw %"class.absl::debian2::string_view", ptr %7, i32 0, i32 1
  %11 = load i64, ptr %6, align 8
  %12 = call noundef i64 @_ZN4absl7debian211string_view19CheckLengthInternalEm(i64 noundef %11)
  store i64 %12, ptr %10, align 8
  ret void
}

; Function Attrs: mustprogress uwtable
define linkonce_odr void @_ZN4absl7debian211string_viewC2EPKc(ptr noundef nonnull align 8 dereferenceable(16) %0, ptr noundef %1) unnamed_addr #4 comdat align 2 {
  %3 = alloca ptr, align 8
  %4 = alloca ptr, align 8
  store ptr %0, ptr %3, align 8
  store ptr %1, ptr %4, align 8
  %5 = load ptr, ptr %3, align 8
  %6 = getelementptr inbounds nuw %"class.absl::debian2::string_view", ptr %5, i32 0, i32 0
  %7 = load ptr, ptr %4, align 8
  store ptr %7, ptr %6, align 8
  %8 = getelementptr inbounds nuw %"class.absl::debian2::string_view", ptr %5, i32 0, i32 1
  %9 = load ptr, ptr %4, align 8
  %10 = icmp ne ptr %9, null
  br i1 %10, label %11, label %15

11:                                               ; preds = %2
  %12 = load ptr, ptr %4, align 8
  %13 = call noundef i64 @_ZN4absl7debian211string_view14StrlenInternalEPKc(ptr noundef %12)
  %14 = call noundef i64 @_ZN4absl7debian211string_view19CheckLengthInternalEm(i64 noundef %13)
  br label %16

15:                                               ; preds = %2
  br label %16

16:                                               ; preds = %15, %11
  %17 = phi i64 [ %14, %11 ], [ 0, %15 ]
  store i64 %17, ptr %8, align 8
  ret void
}

; Function Attrs: mustprogress uwtable
define linkonce_odr void @_ZN4absl7debian28AlphaNumC2Ei(ptr noundef nonnull align 8 dereferenceable(48) %0, i32 noundef %1) unnamed_addr #4 comdat align 2 {
  %3 = alloca ptr, align 8
  %4 = alloca i32, align 4
  store ptr %0, ptr %3, align 8
  store i32 %1, ptr %4, align 4
  %5 = load ptr, ptr %3, align 8
  %6 = getelementptr inbounds nuw %"class.absl::debian2::AlphaNum", ptr %5, i32 0, i32 0
  %7 = getelementptr inbounds nuw %"class.absl::debian2::AlphaNum", ptr %5, i32 0, i32 1
  %8 = getelementptr inbounds [32 x i8], ptr %7, i64 0, i64 0
  %9 = load i32, ptr %4, align 4
  %10 = getelementptr inbounds nuw %"class.absl::debian2::AlphaNum", ptr %5, i32 0, i32 1
  %11 = getelementptr inbounds [32 x i8], ptr %10, i64 0, i64 0
  %12 = call noundef ptr @_ZN4absl7debian216numbers_internal15FastIntToBufferEiPc(i32 noundef %9, ptr noundef %11)
  %13 = getelementptr inbounds nuw %"class.absl::debian2::AlphaNum", ptr %5, i32 0, i32 1
  %14 = getelementptr inbounds [32 x i8], ptr %13, i64 0, i64 0
  %15 = ptrtoint ptr %12 to i64
  %16 = ptrtoint ptr %14 to i64
  %17 = sub i64 %15, %16
  call void @_ZN4absl7debian211string_viewC2EPKcm(ptr noundef nonnull align 8 dereferenceable(16) %6, ptr noundef %8, i64 noundef %17)
  ret void
}

; Function Attrs: mustprogress uwtable
define linkonce_odr void @_ZN4absl7debian28AlphaNumC2EPKc(ptr noundef nonnull align 8 dereferenceable(48) %0, ptr noundef %1) unnamed_addr #4 comdat align 2 {
  %3 = alloca ptr, align 8
  %4 = alloca ptr, align 8
  store ptr %0, ptr %3, align 8
  store ptr %1, ptr %4, align 8
  %5 = load ptr, ptr %3, align 8
  %6 = getelementptr inbounds nuw %"class.absl::debian2::AlphaNum", ptr %5, i32 0, i32 0
  %7 = load ptr, ptr %4, align 8
  call void @_ZN4absl7debian211string_viewC2EPKc(ptr noundef nonnull align 8 dereferenceable(16) %6, ptr noundef %7)
  ret void
}

; Function Attrs: mustprogress uwtable
define void @_ZN10open_spiel8efg_game7EFGGame15RecParseSubtreeEPNS0_4NodeES3_i(ptr noundef nonnull align 8 dereferenceable(720) %0, ptr noundef %1, ptr noundef %2, i32 noundef %3) #4 align 2 personality ptr @__gxx_personality_v0 {
  %5 = alloca ptr, align 8
  %6 = alloca ptr, align 8
  %7 = alloca ptr, align 8
  %8 = alloca i32, align 4
  %9 = alloca %"class.std::__cxx11::basic_string", align 8
  %10 = alloca %"class.absl::debian2::AlphaNum", align 8
  %11 = alloca %"class.absl::debian2::AlphaNum", align 8
  %12 = alloca %"class.absl::debian2::AlphaNum", align 8
  %13 = alloca %"class.absl::debian2::AlphaNum", align 8
  %14 = alloca %"class.std::__cxx11::basic_string", align 8
  %15 = alloca ptr, align 8
  %16 = alloca i32, align 4
  store ptr %0, ptr %5, align 8
  store ptr %1, ptr %6, align 8
  store ptr %2, ptr %7, align 8
  store i32 %3, ptr %8, align 4
  %17 = load ptr, ptr %5, align 8
  %18 = getelementptr inbounds nuw %"class.open_spiel::efg_game::EFGGame", ptr %17, i32 0, i32 2
  %19 = getelementptr inbounds nuw %"class.open_spiel::efg_game::EFGGame", ptr %17, i32 0, i32 3
  %20 = load i32, ptr %19, align 8
  %21 = sext i32 %20 to i64
  %22 = call noundef nonnull align 1 dereferenceable(1) ptr @_ZNSt7__cxx1112basic_stringIcSt11char_traitsIcESaIcEE2atEm(ptr noundef nonnull align 8 dereferenceable(32) %18, i64 noundef %21)
  %23 = load i8, ptr %22, align 1
  %24 = sext i8 %23 to i32
  switch i32 %24, label %37 [
    i32 99, label %25
    i32 112, label %29
    i32 116, label %33
  ]

25:                                               ; preds = %4
  %26 = load ptr, ptr %6, align 8
  %27 = load ptr, ptr %7, align 8
  %28 = load i32, ptr %8, align 4
  call void @_ZN10open_spiel8efg_game7EFGGame15ParseChanceNodeEPNS0_4NodeES3_i(ptr noundef nonnull align 8 dereferenceable(720) %17, ptr noundef %26, ptr noundef %27, i32 noundef %28)
  br label %56

29:                                               ; preds = %4
  %30 = load ptr, ptr %6, align 8
  %31 = load ptr, ptr %7, align 8
  %32 = load i32, ptr %8, align 4
  call void @_ZN10open_spiel8efg_game7EFGGame15ParsePlayerNodeEPNS0_4NodeES3_i(ptr noundef nonnull align 8 dereferenceable(720) %17, ptr noundef %30, ptr noundef %31, i32 noundef %32)
  br label %56

33:                                               ; preds = %4
  %34 = load ptr, ptr %6, align 8
  %35 = load ptr, ptr %7, align 8
  %36 = load i32, ptr %8, align 4
  call void @_ZN10open_spiel8efg_game7EFGGame17ParseTerminalNodeEPNS0_4NodeES3_i(ptr noundef nonnull align 8 dereferenceable(720) %17, ptr noundef %34, ptr noundef %35, i32 noundef %36)
  br label %56

37:                                               ; preds = %4
  call void @_ZN4absl7debian28AlphaNumC2EPKc(ptr noundef nonnull align 8 dereferenceable(48) %10, ptr noundef @.str.105)
  %38 = getelementptr inbounds nuw %"class.open_spiel::efg_game::EFGGame", ptr %17, i32 0, i32 3
  %39 = load i32, ptr %38, align 8
  call void @_ZN4absl7debian28AlphaNumC2Ei(ptr noundef nonnull align 8 dereferenceable(48) %11, i32 noundef %39)
  call void @_ZN4absl7debian28AlphaNumC2EPKc(ptr noundef nonnull align 8 dereferenceable(48) %12, ptr noundef @.str.20)
  %40 = getelementptr inbounds nuw %"class.open_spiel::efg_game::EFGGame", ptr %17, i32 0, i32 2
  %41 = getelementptr inbounds nuw %"class.open_spiel::efg_game::EFGGame", ptr %17, i32 0, i32 3
  %42 = load i32, ptr %41, align 8
  %43 = sext i32 %42 to i64
  call void @_ZNKSt7__cxx1112basic_stringIcSt11char_traitsIcESaIcEE6substrEmm(ptr dead_on_unwind writable sret(%"class.std::__cxx11::basic_string") align 8 %14, ptr noundef nonnull align 8 dereferenceable(32) %40, i64 noundef %43, i64 noundef 1)
  invoke void @_ZN4absl7debian28AlphaNumC2ISaIcEEERKNSt7__cxx1112basic_stringIcSt11char_traitsIcET_EE(ptr noundef nonnull align 8 dereferenceable(48) %13, ptr noundef nonnull align 8 dereferenceable(32) %14)
          to label %44 unwind label %47

44:                                               ; preds = %37
  invoke void @_ZN4absl7debian26StrCatB5cxx11ERKNS0_8AlphaNumES3_S3_S3_(ptr dead_on_unwind writable sret(%"class.std::__cxx11::basic_string") align 8 %9, ptr noundef nonnull align 8 dereferenceable(48) %10, ptr noundef nonnull align 8 dereferenceable(48) %11, ptr noundef nonnull align 8 dereferenceable(48) %12, ptr noundef nonnull align 8 dereferenceable(48) %13)
          to label %45 unwind label %47

45:                                               ; preds = %44
  invoke void @_ZN10open_spiel15SpielFatalErrorERKNSt7__cxx1112basic_stringIcSt11char_traitsIcESaIcEEE(ptr noundef nonnull align 8 dereferenceable(32) %9) #21
          to label %46 unwind label %51

46:                                               ; preds = %45
  unreachable

47:                                               ; preds = %44, %37
  %48 = landingpad { ptr, i32 }
          cleanup
  %49 = extractvalue { ptr, i32 } %48, 0
  store ptr %49, ptr %15, align 8
  %50 = extractvalue { ptr, i32 } %48, 1
  store i32 %50, ptr %16, align 4
  br label %55

51:                                               ; preds = %45
  %52 = landingpad { ptr, i32 }
          cleanup
  %53 = extractvalue { ptr, i32 } %52, 0
  store ptr %53, ptr %15, align 8
  %54 = extractvalue { ptr, i32 } %52, 1
  store i32 %54, ptr %16, align 4
  call void @_ZNSt7__cxx1112basic_stringIcSt11char_traitsIcESaIcEED1Ev(ptr noundef nonnull align 8 dereferenceable(32) %9) #3
  br label %55

55:                                               ; preds = %51, %47
  call void @_ZNSt7__cxx1112basic_stringIcSt11char_traitsIcESaIcEED1Ev(ptr noundef nonnull align 8 dereferenceable(32) %14) #3
  br label %57

56:                                               ; preds = %33, %29, %25
  ret void

57:                                               ; preds = %55
  %58 = load ptr, ptr %15, align 8
  %59 = load i32, ptr %16, align 4
  %60 = insertvalue { ptr, i32 } poison, ptr %58, 0
  %61 = insertvalue { ptr, i32 } %60, i32 %59, 1
  resume { ptr, i32 } %61
}