; Function Attrs: mustprogress uwtable
define void @_ZN10open_spiel8efg_game7EFGGame15RecParseSubtreeEPNS0_4NodeES3_i(ptr noundef nonnull align 8 dereferenceable(720) %0, ptr noundef %1, ptr noundef %2, i32 noundef %3) local_unnamed_addr #3 align 2 personality ptr @__gxx_personality_v0 {
  %5 = alloca %"class.std::__cxx11::basic_string", align 8
  %6 = alloca %"class.absl::debian2::AlphaNum", align 8
  %7 = alloca %"class.absl::debian2::AlphaNum", align 8
  %8 = alloca %"class.absl::debian2::AlphaNum", align 8
  %9 = alloca %"class.absl::debian2::AlphaNum", align 8
  %10 = alloca %"class.std::__cxx11::basic_string", align 8
  %11 = getelementptr inbounds nuw i8, ptr %0, i64 312
  %12 = getelementptr inbounds nuw i8, ptr %0, i64 344
  %13 = load i32, ptr %12, align 8
  %14 = sext i32 %13 to i64
  %15 = tail call noundef nonnull align 1 dereferenceable(1) ptr @_ZNSt7__cxx1112basic_stringIcSt11char_traitsIcESaIcEE2atEm(ptr noundef nonnull align 8 dereferenceable(32) %11, i64 noundef %14)
  %16 = load i8, ptr %15, align 1
  switch i8 %16, label %_ZN4absl7debian28AlphaNumC2EPKc.exit [
    i8 99, label %17
    i8 112, label %18
    i8 116, label %19
  ]

17:                                               ; preds = %4
  tail call void @_ZN10open_spiel8efg_game7EFGGame15ParseChanceNodeEPNS0_4NodeES3_i(ptr noundef nonnull align 8 dereferenceable(720) %0, ptr noundef %1, ptr noundef %2, i32 noundef %3)
  br label %40

18:                                               ; preds = %4
  tail call void @_ZN10open_spiel8efg_game7EFGGame15ParsePlayerNodeEPNS0_4NodeES3_i(ptr noundef nonnull align 8 dereferenceable(720) %0, ptr noundef %1, ptr noundef %2, i32 noundef %3)
  br label %40

19:                                               ; preds = %4
  tail call void @_ZN10open_spiel8efg_game7EFGGame17ParseTerminalNodeEPNS0_4NodeES3_i(ptr noundef nonnull align 8 dereferenceable(720) %0, ptr noundef %1, ptr noundef %2, i32 noundef %3)
  br label %40

_ZN4absl7debian28AlphaNumC2EPKc.exit:             ; preds = %4
  store ptr @.str.105, ptr %6, align 8
  %20 = getelementptr inbounds nuw i8, ptr %6, i64 8
  store i64 28, ptr %20, align 8
  %21 = load i32, ptr %12, align 8
  %22 = getelementptr inbounds nuw i8, ptr %7, i64 16
  %23 = call noundef ptr @_ZN4absl7debian216numbers_internal15FastIntToBufferEiPc(i32 noundef %21, ptr noundef nonnull %22)
  %24 = ptrtoint ptr %23 to i64
  %25 = ptrtoint ptr %22 to i64
  %26 = sub i64 %24, %25
  store ptr %22, ptr %7, align 8
  %27 = icmp sgt i64 %26, -1
  br i1 %27, label %_ZN4absl7debian28AlphaNumC2Ei.exit, label %28

28:                                               ; preds = %_ZN4absl7debian28AlphaNumC2EPKc.exit
  call void @llvm.trap()
  unreachable

_ZN4absl7debian28AlphaNumC2Ei.exit:               ; preds = %_ZN4absl7debian28AlphaNumC2EPKc.exit
  %29 = getelementptr inbounds nuw i8, ptr %7, i64 8
  store i64 %26, ptr %29, align 8
  store ptr @.str.20, ptr %8, align 8
  %30 = getelementptr inbounds nuw i8, ptr %8, i64 8
  store i64 2, ptr %30, align 8
  %31 = load i32, ptr %12, align 8
  %32 = sext i32 %31 to i64
  call void @_ZNKSt7__cxx1112basic_stringIcSt11char_traitsIcESaIcEE6substrEmm(ptr dead_on_unwind nonnull writable sret(%"class.std::__cxx11::basic_string") align 8 %10, ptr noundef nonnull align 8 dereferenceable(32) %11, i64 noundef %32, i64 noundef 1)
  call void @_ZN4absl7debian28AlphaNumC2ISaIcEEERKNSt7__cxx1112basic_stringIcSt11char_traitsIcET_EE(ptr noundef nonnull align 8 dereferenceable(48) %9, ptr noundef nonnull align 8 dereferenceable(32) %10)
  invoke void @_ZN4absl7debian26StrCatB5cxx11ERKNS0_8AlphaNumES3_S3_S3_(ptr dead_on_unwind nonnull writable sret(%"class.std::__cxx11::basic_string") align 8 %5, ptr noundef nonnull align 8 dereferenceable(48) %6, ptr noundef nonnull align 8 dereferenceable(48) %7, ptr noundef nonnull align 8 dereferenceable(48) %8, ptr noundef nonnull align 8 dereferenceable(48) %9)
          to label %33 unwind label %35

33:                                               ; preds = %_ZN4absl7debian28AlphaNumC2Ei.exit
  invoke void @_ZN10open_spiel15SpielFatalErrorERKNSt7__cxx1112basic_stringIcSt11char_traitsIcESaIcEEE(ptr noundef nonnull align 8 dereferenceable(32) %5) #28
          to label %34 unwind label %37

34:                                               ; preds = %33
  unreachable

35:                                               ; preds = %_ZN4absl7debian28AlphaNumC2Ei.exit
  %36 = landingpad { ptr, i32 }
          cleanup
  br label %39

37:                                               ; preds = %33
  %38 = landingpad { ptr, i32 }
          cleanup
  call void @_ZNSt7__cxx1112basic_stringIcSt11char_traitsIcESaIcEED1Ev(ptr noundef nonnull align 8 dereferenceable(32) %5) #29
  br label %39

39:                                               ; preds = %37, %35
  %.pn = phi { ptr, i32 } [ %38, %37 ], [ %36, %35 ]
  call void @_ZNSt7__cxx1112basic_stringIcSt11char_traitsIcESaIcEED1Ev(ptr noundef nonnull align 8 dereferenceable(32) %10) #29
  resume { ptr, i32 } %.pn

40:                                               ; preds = %19, %18, %17
  ret void
}